Certificate:
    Data:
        Version: 3 (0x2)
        Serial Number: 3 (0x3)
    Signature Algorithm: sha1WithRSAEncryption
        Issuer: C=US, ST=CA, L=Somewhere, O=Ciena Inc./emailAddress=admin@ciena.com, CN=Example Certificate Authority
        Validity
            Not Before: Mar 11 00:46:18 2017 GMT
            Not After : Mar  6 00:46:18 2018 GMT
        Subject: C=US, ST=CA, O=Ciena Inc., CN=Example Server Certificate/emailAddress=admin@ciena.com
        Subject Public Key Info:
            Public Key Algorithm: rsaEncryption
                Public-Key: (2048 bit)
                Modulus:
                    00:d5:78:e4:d8:c6:a7:cf:08:22:c7:d7:bf:d8:47:
                    78:bc:78:76:c3:a8:a1:70:42:be:0d:ed:d1:ef:05:
                    58:a9:b5:31:13:0f:f2:15:53:da:95:cf:ee:14:1c:
                    c8:23:79:f2:0b:e2:ba:1e:36:52:f0:f5:32:0e:ab:
                    18:45:0f:31:f5:b7:84:6d:b4:41:4c:33:9d:e5:07:
                    b4:72:98:da:de:6b:37:4e:8f:16:c9:e4:42:42:2c:
                    8d:87:ee:62:fa:c1:b5:a9:3c:d0:5e:0a:35:df:cb:
                    7a:1c:03:7f:37:ec:31:63:78:be:04:f8:39:f9:55:
                    93:e4:b0:65:53:34:43:69:64:89:66:2c:8a:a4:38:
                    25:74:ae:e6:c4:63:96:43:5d:9a:9e:9b:27:79:d8:
                    fc:3c:36:2b:8e:ab:37:d4:06:65:bd:24:b1:66:c5:
                    32:1c:b2:81:e8:2d:32:69:73:ac:89:d6:b7:f2:98:
                    7a:83:88:0a:1a:3f:31:eb:ee:83:fe:d0:f0:88:f5:
                    97:54:26:d8:a2:6e:6a:97:88:aa:a1:b0:52:ed:0f:
                    d5:cb:f5:0b:36:bb:69:79:1b:5c:1c:72:ed:26:61:
                    00:8f:0c:7b:9a:75:a7:3a:5e:15:65:30:bb:94:06:
                    25:a8:8e:f4:50:80:b6:ba:64:7c:00:bd:4d:f9:0a:
                    de:5d
                Exponent: 65537 (0x10001)
        X509v3 extensions:
            X509v3 Extended Key Usage: 
                TLS Web Server Authentication
            X509v3 CRL Distribution Points: 

                Full Name:
                  URI:http://www.example.com/example_ca.crl

    Signature Algorithm: sha1WithRSAEncryption
         93:2b:1e:f2:bd:3e:bb:09:3c:96:ad:3a:23:1b:4e:54:0e:0f:
         99:d4:a1:22:7a:96:a4:0b:d8:0e:98:ca:1f:b1:57:ee:53:47:
         06:1d:40:5f:07:c2:41:14:7e:cb:38:0b:e2:27:b8:72:ca:71:
         90:70:05:c6:2e:6b:a3:96:40:43:50:61:a7:07:e2:e1:45:b9:
         a5:ed:01:1e:c8:33:b5:2b:88:99:4a:c7:1e:f5:c4:55:9e:49:
         16:25:cd:19:65:d1:c1:c4:a1:8f:69:04:20:e9:f4:b0:08:16:
         59:8c:89:47:44:fc:64:8e:0b:b8:49:d4:2c:a6:f7:8e:2e:32:
         ca:57:91:0d:f2:c6:74:c8:cb:45:45:6f:36:32:a6:d2:00:49:
         ee:5f:7e:62:97:a5:d0:8c:08:88:eb:83:5a:ec:cb:5d:f4:31:
         05:8d:41:63:ee:7a:24:5b:8b:96:c7:6d:f0:d4:09:e0:32:e9:
         fc:39:29:dd:6a:fb:31:58:f9:90:ef:af:12:c9:12:e9:5b:fc:
         2c:47:6b:ee:91:aa:a2:d8:cb:fc:ad:06:95:8c:58:a1:3d:64:
         2e:ca:c6:e1:11:b1:ed:5f:43:4a:21:e1:86:1d:6f:f3:1f:12:
         1a:81:46:eb:ef:b3:97:77:f6:93:be:2b:c2:d4:62:09:75:fe:
         46:49:29:e4
-----BEGIN CERTIFICATE-----
MIIDyjCCArKgAwIBAgIBAzANBgkqhkiG9w0BAQUFADCBizELMAkGA1UEBhMCVVMx
CzAJBgNVBAgMAkNBMRIwEAYDVQQHDAlTb21ld2hlcmUxEzARBgNVBAoMCkNpZW5h
IEluYy4xHjAcBgkqhkiG9w0BCQEWD2FkbWluQGNpZW5hLmNvbTEmMCQGA1UEAwwd
RXhhbXBsZSBDZXJ0aWZpY2F0ZSBBdXRob3JpdHkwHhcNMTcwMzExMDA0NjE4WhcN
MTgwMzA2MDA0NjE4WjB0MQswCQYDVQQGEwJVUzELMAkGA1UECAwCQ0ExEzARBgNV
BAoMCkNpZW5hIEluYy4xIzAhBgNVBAMMGkV4YW1wbGUgU2VydmVyIENlcnRpZmlj
YXRlMR4wHAYJKoZIhvcNAQkBFg9hZG1pbkBjaWVuYS5jb20wggEiMA0GCSqGSIb3
DQEBAQUAA4IBDwAwggEKAoIBAQDVeOTYxqfPCCLH17/YR3i8eHbDqKFwQr4N7dHv
BViptTETD/IVU9qVz+4UHMgjefIL4roeNlLw9TIOqxhFDzH1t4RttEFMM53lB7Ry
mNreazdOjxbJ5EJCLI2H7mL6wbWpPNBeCjXfy3ocA3837DFjeL4E+Dn5VZPksGVT
NENpZIlmLIqkOCV0rubEY5ZDXZqemyd52Pw8NiuOqzfUBmW9JLFmxTIcsoHoLTJp
c6yJ1rfymHqDiAoaPzHr7oP+0PCI9ZdUJtiibmqXiKqhsFLtD9XL9Qs2u2l5G1wc
cu0mYQCPDHuadac6XhVlMLuUBiWojvRQgLa6ZHwAvU35Ct5dAgMBAAGjTzBNMBMG
A1UdJQQMMAoGCCsGAQUFBwMBMDYGA1UdHwQvMC0wK6ApoCeGJWh0dHA6Ly93d3cu
ZXhhbXBsZS5jb20vZXhhbXBsZV9jYS5jcmwwDQYJKoZIhvcNAQEFBQADggEBAJMr
HvK9PrsJPJatOiMbTlQOD5nUoSJ6lqQL2A6Yyh+xV+5TRwYdQF8HwkEUfss4C+In
uHLKcZBwBcYua6OWQENQYacH4uFFuaXtAR7IM7UriJlKxx71xFWeSRYlzRll0cHE
oY9pBCDp9LAIFlmMiUdE/GSOC7hJ1Cym944uMspXkQ3yxnTIy0VFbzYyptIASe5f
fmKXpdCMCIjrg1rsy130MQWNQWPueiRbi5bHbfDUCeAy6fw5Kd1q+zFY+ZDvrxLJ
Eulb/CxHa+6RqqLYy/ytBpWMWKE9ZC7KxuERse1fQ0oh4YYdb/MfEhqBRuvvs5d3
9pO+K8LUYgl1/kZJKeQ=
-----END CERTIFICATE-----
