Certificate:
    Data:
        Version: 3 (0x2)
        Serial Number: 4 (0x4)
    Signature Algorithm: sha1WithRSAEncryption
        Issuer: C=US, ST=CA, L=Somewhere, O=Ciena Inc./emailAddress=admin@ciena.com, CN=Example Certificate Authority
        Validity
            Not Before: Mar 11 00:46:19 2017 GMT
            Not After : Mar  6 00:46:19 2018 GMT
        Subject: C=US, ST=CA, O=Ciena Inc., CN=user@ciena.com/emailAddress=user@ciena.com
        Subject Public Key Info:
            Public Key Algorithm: rsaEncryption
                Public-Key: (2048 bit)
                Modulus:
                    00:b3:d4:8e:0d:81:9a:1d:06:ba:10:11:d2:db:ec:
                    eb:6d:7a:da:e7:c1:d6:a6:bf:91:bf:a9:f1:99:7b:
                    94:63:9e:17:c3:8e:62:19:25:87:ea:4d:cc:40:f6:
                    e1:a1:2f:af:01:17:ba:bb:a6:4c:02:fd:98:71:01:
                    d9:14:13:47:10:e5:e6:75:71:8e:cd:0b:1e:b0:55:
                    ad:17:c8:f3:d2:67:71:b1:9f:a2:04:04:76:ce:84:
                    a4:82:ee:75:8a:22:02:8b:1c:76:e6:ab:e7:c3:6a:
                    51:30:78:5d:6b:d6:3f:94:24:e8:6f:74:2e:6f:0b:
                    18:1c:86:7b:ea:36:b9:27:40:83:11:fe:f0:72:f7:
                    01:0e:d2:ef:b1:32:c6:18:fb:bb:e8:89:18:68:e5:
                    ab:f2:4f:9d:25:df:56:31:dd:1b:54:3f:9c:b4:0b:
                    62:f7:d0:d2:33:ea:53:99:48:4a:46:77:bb:47:ed:
                    bc:b1:f4:4d:d6:41:4b:d0:72:57:82:74:98:98:78:
                    19:f8:8c:55:03:ec:d3:51:3c:05:ec:53:ff:cf:f7:
                    9e:9e:69:bd:b0:1e:3d:7b:0c:a2:55:4e:be:f7:da:
                    27:69:c9:4e:10:6a:16:36:03:41:b3:e1:17:79:37:
                    f3:49:a9:ce:e2:91:03:47:92:58:6d:43:41:90:60:
                    d9:a1
                Exponent: 65537 (0x10001)
        X509v3 extensions:
            X509v3 Extended Key Usage: 
                TLS Web Client Authentication
            X509v3 CRL Distribution Points: 

                Full Name:
                  URI:http://www.example.com/example_ca.crl

    Signature Algorithm: sha1WithRSAEncryption
         20:56:2b:1e:6b:aa:9f:d8:24:cf:b1:e3:ea:b8:4c:ce:d2:87:
         88:2c:27:dc:54:85:18:24:79:d3:db:79:dc:6b:7c:e4:52:bd:
         94:79:72:d2:1e:51:83:2c:00:f0:28:7d:1b:e9:22:ab:66:28:
         fd:7f:ad:62:47:1b:25:9f:e4:0b:47:b1:34:c4:2a:a4:79:66:
         b8:68:a5:de:ca:62:d4:c1:a8:c8:da:44:96:49:d4:63:2d:81:
         0a:83:1e:b8:87:db:47:da:e1:c0:48:57:e3:39:59:99:bc:96:
         2f:a3:a1:99:94:c8:a4:be:bc:47:ff:48:61:95:68:88:9e:22:
         43:8c:c6:24:18:7b:78:eb:25:a3:79:8d:4c:ca:3e:4b:d9:ee:
         38:94:52:4d:12:83:e1:89:dc:ab:38:6d:92:e9:c2:1a:33:36:
         29:c8:78:14:6b:d3:95:29:89:5a:e3:a9:9e:11:19:25:db:82:
         82:40:81:55:55:a9:1f:a2:43:7a:5a:15:7f:78:2a:7c:c0:08:
         a0:99:2c:7f:78:3b:e6:26:d4:cf:cb:ab:35:07:40:20:21:a4:
         0c:7d:b8:49:7a:c8:33:dd:36:da:41:7d:79:53:98:33:83:c2:
         7b:69:51:a1:e8:cc:3f:6e:3a:32:9a:7c:c8:42:4f:74:af:5c:
         8e:e6:2e:54
-----BEGIN CERTIFICATE-----
MIIDvTCCAqWgAwIBAgIBBDANBgkqhkiG9w0BAQUFADCBizELMAkGA1UEBhMCVVMx
CzAJBgNVBAgMAkNBMRIwEAYDVQQHDAlTb21ld2hlcmUxEzARBgNVBAoMCkNpZW5h
IEluYy4xHjAcBgkqhkiG9w0BCQEWD2FkbWluQGNpZW5hLmNvbTEmMCQGA1UEAwwd
RXhhbXBsZSBDZXJ0aWZpY2F0ZSBBdXRob3JpdHkwHhcNMTcwMzExMDA0NjE5WhcN
MTgwMzA2MDA0NjE5WjBnMQswCQYDVQQGEwJVUzELMAkGA1UECAwCQ0ExEzARBgNV
BAoMCkNpZW5hIEluYy4xFzAVBgNVBAMMDnVzZXJAY2llbmEuY29tMR0wGwYJKoZI
hvcNAQkBFg51c2VyQGNpZW5hLmNvbTCCASIwDQYJKoZIhvcNAQEBBQADggEPADCC
AQoCggEBALPUjg2Bmh0GuhAR0tvs62162ufB1qa/kb+p8Zl7lGOeF8OOYhklh+pN
zED24aEvrwEXurumTAL9mHEB2RQTRxDl5nVxjs0LHrBVrRfI89JncbGfogQEds6E
pILudYoiAoscduar58NqUTB4XWvWP5Qk6G90Lm8LGByGe+o2uSdAgxH+8HL3AQ7S
77Eyxhj7u+iJGGjlq/JPnSXfVjHdG1Q/nLQLYvfQ0jPqU5lISkZ3u0ftvLH0TdZB
S9ByV4J0mJh4GfiMVQPs01E8BexT/8/3np5pvbAePXsMolVOvvfaJ2nJThBqFjYD
QbPhF3k380mpzuKRA0eSWG1DQZBg2aECAwEAAaNPME0wEwYDVR0lBAwwCgYIKwYB
BQUHAwIwNgYDVR0fBC8wLTAroCmgJ4YlaHR0cDovL3d3dy5leGFtcGxlLmNvbS9l
eGFtcGxlX2NhLmNybDANBgkqhkiG9w0BAQUFAAOCAQEAIFYrHmuqn9gkz7Hj6rhM
ztKHiCwn3FSFGCR509t53Gt85FK9lHly0h5RgywA8Ch9G+kiq2Yo/X+tYkcbJZ/k
C0exNMQqpHlmuGil3spi1MGoyNpElknUYy2BCoMeuIfbR9rhwEhX4zlZmbyWL6Oh
mZTIpL68R/9IYZVoiJ4iQ4zGJBh7eOslo3mNTMo+S9nuOJRSTRKD4YncqzhtkunC
GjM2Kch4FGvTlSmJWuOpnhEZJduCgkCBVVWpH6JDeloVf3gqfMAIoJksf3g75ibU
z8urNQdAICGkDH24SXrIM9022kF9eVOYM4PCe2lRoejMP246Mpp8yEJPdK9cjuYu
VA==
-----END CERTIFICATE-----
