Certificate:
    Data:
        Version: 3 (0x2)
        Serial Number: 5 (0x5)
    Signature Algorithm: sha1WithRSAEncryption
        Issuer: C=US, ST=CA, L=Somewhere, O=Ciena Inc./emailAddress=admin@ciena.com, CN=Example Certificate Authority
        Validity
            Not Before: Mar 11 00:47:43 2017 GMT
            Not After : Oct 31 00:47:43 2022 GMT
        Subject: C=US, ST=CA, O=Ciena Inc., CN=Example Server Certificate/emailAddress=admin@ciena.com
        Subject Public Key Info:
            Public Key Algorithm: rsaEncryption
                Public-Key: (2048 bit)
                Modulus:
                    00:cb:b3:5b:bc:a3:20:e3:79:6d:a0:45:d9:cc:6d:
                    54:4a:53:d0:72:66:92:b7:00:35:43:9c:a0:99:5c:
                    94:f0:65:d3:c1:a1:e8:4b:5f:19:57:dc:9a:e3:52:
                    ba:61:98:e6:a2:73:8b:e1:72:0b:53:e5:50:35:ab:
                    58:ec:04:ff:b0:78:ab:f6:61:d0:8a:c8:43:af:c2:
                    fe:43:26:20:4c:78:cd:01:b7:d0:70:d4:2d:f3:c8:
                    1b:c7:84:aa:be:57:6b:49:b0:f8:66:db:ec:2c:68:
                    05:9c:8f:2d:e2:a3:a3:be:f6:8b:a9:d3:f4:01:96:
                    d2:76:1e:1b:a7:b5:87:a5:ed:b6:a6:2e:50:76:05:
                    11:84:92:b0:d8:70:46:1f:3c:ee:07:fc:ca:45:dd:
                    ca:df:f7:0b:27:05:6d:4d:ce:02:39:49:92:c3:87:
                    f8:44:76:e2:b4:9c:2e:00:18:8d:0b:8f:9a:8c:7f:
                    cd:99:81:d2:1c:d2:f7:48:5b:12:4d:40:ef:4c:cf:
                    3b:ea:f4:6e:60:c3:a4:a7:df:fb:0f:1b:39:75:7f:
                    60:0a:d6:d7:9a:9a:f0:80:aa:b6:d5:da:cc:08:64:
                    80:a2:dd:0a:01:1e:6f:9b:19:49:c5:97:b6:2e:6d:
                    c5:8c:98:4c:13:a4:15:6a:d5:fc:66:cf:17:83:0e:
                    bf:fb
                Exponent: 65537 (0x10001)
        X509v3 extensions:
            X509v3 Extended Key Usage: 
                TLS Web Server Authentication
            X509v3 CRL Distribution Points: 

                Full Name:
                  URI:http://www.example.com/example_ca.crl

    Signature Algorithm: sha1WithRSAEncryption
         a0:f6:b8:4d:6f:f5:5e:ae:04:98:c8:44:cd:24:4d:d9:f1:a2:
         f5:c1:ac:97:d5:d9:30:e3:f8:e0:40:97:ac:bf:71:61:fa:c1:
         7c:c6:7b:09:36:76:12:a1:9d:3a:91:c0:11:6b:35:6b:5b:32:
         ec:72:af:84:20:c0:a8:81:50:20:aa:98:92:52:20:c6:a4:97:
         00:7a:4c:70:ba:b5:c4:25:46:7e:c5:46:48:92:cc:e0:6b:d7:
         a7:2c:25:77:f9:d3:11:e0:a0:b5:02:bb:c0:43:98:dd:4e:5c:
         57:d7:f4:25:5b:a5:15:f2:db:23:62:e0:f7:20:66:e4:6d:f8:
         10:73:43:22:df:80:25:7e:6e:ce:13:26:56:96:1d:39:f0:00:
         0e:a7:8d:82:b9:7a:8a:7a:17:7e:7b:eb:19:df:26:36:a0:e4:
         71:fd:09:ac:43:42:92:df:a2:f8:2b:4f:51:28:9d:8e:0c:ac:
         3c:d5:ec:b8:97:89:57:f7:c8:bb:d3:3e:67:95:66:85:27:69:
         7a:1e:fe:f5:a3:f9:df:c5:52:44:21:89:ed:c4:bb:20:d9:37:
         80:fa:c3:f2:44:22:5f:fa:ea:5d:0c:59:10:07:d8:fa:91:e1:
         9c:98:4e:c3:d4:ae:0e:5a:f4:6b:c4:c6:4a:dd:b7:d5:a3:a7:
         c0:72:fd:04
-----BEGIN CERTIFICATE-----
MIIDyjCCArKgAwIBAgIBBTANBgkqhkiG9w0BAQUFADCBizELMAkGA1UEBhMCVVMx
CzAJBgNVBAgMAkNBMRIwEAYDVQQHDAlTb21ld2hlcmUxEzARBgNVBAoMCkNpZW5h
IEluYy4xHjAcBgkqhkiG9w0BCQEWD2FkbWluQGNpZW5hLmNvbTEmMCQGA1UEAwwd
RXhhbXBsZSBDZXJ0aWZpY2F0ZSBBdXRob3JpdHkwHhcNMTcwMzExMDA0NzQzWhcN
MjIxMDMxMDA0NzQzWjB0MQswCQYDVQQGEwJVUzELMAkGA1UECAwCQ0ExEzARBgNV
BAoMCkNpZW5hIEluYy4xIzAhBgNVBAMMGkV4YW1wbGUgU2VydmVyIENlcnRpZmlj
YXRlMR4wHAYJKoZIhvcNAQkBFg9hZG1pbkBjaWVuYS5jb20wggEiMA0GCSqGSIb3
DQEBAQUAA4IBDwAwggEKAoIBAQDLs1u8oyDjeW2gRdnMbVRKU9ByZpK3ADVDnKCZ
XJTwZdPBoehLXxlX3JrjUrphmOaic4vhcgtT5VA1q1jsBP+weKv2YdCKyEOvwv5D
JiBMeM0Bt9Bw1C3zyBvHhKq+V2tJsPhm2+wsaAWcjy3io6O+9oup0/QBltJ2Hhun
tYel7bamLlB2BRGEkrDYcEYfPO4H/MpF3crf9wsnBW1NzgI5SZLDh/hEduK0nC4A
GI0Lj5qMf82ZgdIc0vdIWxJNQO9Mzzvq9G5gw6Sn3/sPGzl1f2AK1teamvCAqrbV
2swIZICi3QoBHm+bGUnFl7YubcWMmEwTpBVq1fxmzxeDDr/7AgMBAAGjTzBNMBMG
A1UdJQQMMAoGCCsGAQUFBwMBMDYGA1UdHwQvMC0wK6ApoCeGJWh0dHA6Ly93d3cu
ZXhhbXBsZS5jb20vZXhhbXBsZV9jYS5jcmwwDQYJKoZIhvcNAQEFBQADggEBAKD2
uE1v9V6uBJjIRM0kTdnxovXBrJfV2TDj+OBAl6y/cWH6wXzGewk2dhKhnTqRwBFr
NWtbMuxyr4QgwKiBUCCqmJJSIMaklwB6THC6tcQlRn7FRkiSzOBr16csJXf50xHg
oLUCu8BDmN1OXFfX9CVbpRXy2yNi4PcgZuRt+BBzQyLfgCV+bs4TJlaWHTnwAA6n
jYK5eop6F3576xnfJjag5HH9CaxDQpLfovgrT1EonY4MrDzV7LiXiVf3yLvTPmeV
ZoUnaXoe/vWj+d/FUkQhie3EuyDZN4D6w/JEIl/66l0MWRAH2PqR4ZyYTsPUrg5a
9GvExkrdt9Wjp8By/QQ=
-----END CERTIFICATE-----
