Certificate:
    Data:
        Version: 3 (0x2)
        Serial Number: 6 (0x6)
    Signature Algorithm: sha1WithRSAEncryption
        Issuer: C=US, ST=CA, L=Somewhere, O=Ciena Inc./emailAddress=admin@ciena.com, CN=Example Certificate Authority
        Validity
            Not Before: Mar 11 00:47:44 2017 GMT
            Not After : Oct 31 00:47:44 2022 GMT
        Subject: C=US, ST=CA, O=Ciena Inc., CN=user@ciena.com/emailAddress=user@ciena.com
        Subject Public Key Info:
            Public Key Algorithm: rsaEncryption
                Public-Key: (2048 bit)
                Modulus:
                    00:e4:f1:8b:9f:93:52:e6:a8:b1:48:7b:7f:fe:14:
                    f6:e9:cb:57:7a:87:08:2e:d2:7f:77:b4:a3:c1:7e:
                    14:fe:01:55:08:88:b2:55:13:12:ea:70:81:dd:d5:
                    92:25:40:87:15:fb:e0:e7:37:c3:b5:c5:f7:c9:ac:
                    2b:1e:dd:4d:eb:69:41:a6:4f:66:01:20:1a:20:e6:
                    cc:6c:e5:00:69:30:a8:3e:05:3b:92:68:b4:93:20:
                    23:4a:e9:71:8c:3e:33:fc:fe:58:35:60:27:1d:c8:
                    f9:51:b2:0b:a9:45:2a:12:09:59:39:53:c9:28:5e:
                    c8:c6:29:72:04:af:3a:e3:78:cf:c9:1e:08:d8:36:
                    b9:a4:59:20:eb:c8:7f:a6:94:09:31:7b:7e:9d:87:
                    0b:fe:3a:f3:fd:d3:e9:1f:d5:b9:82:85:35:da:6c:
                    c9:4d:68:81:b4:2a:09:42:f8:58:73:36:b9:6c:fa:
                    1b:ba:f3:5c:8d:3f:b2:49:0a:7a:6a:06:a2:e1:70:
                    fb:42:37:c9:d3:e9:1a:98:96:2b:83:69:3c:a1:da:
                    c7:87:51:19:a3:b5:36:64:c3:0a:da:c9:38:02:8f:
                    43:1f:02:61:81:f4:1c:c3:69:05:b6:2f:89:d4:e7:
                    1c:1c:58:50:1a:d6:36:9c:ce:27:fc:60:a2:96:b0:
                    03:c9
                Exponent: 65537 (0x10001)
        X509v3 extensions:
            X509v3 Extended Key Usage: 
                TLS Web Client Authentication
            X509v3 CRL Distribution Points: 

                Full Name:
                  URI:http://www.example.com/example_ca.crl

    Signature Algorithm: sha1WithRSAEncryption
         a2:c6:b9:c1:5f:d1:03:65:ce:fd:25:46:5b:1e:4a:26:44:0d:
         06:7e:b3:2a:e2:d1:38:37:64:9b:55:30:a6:47:52:66:96:28:
         5f:0d:9d:b3:a6:0f:3d:bc:55:f6:01:5e:8a:d0:9c:3d:94:14:
         86:8d:fc:16:0d:4b:62:b3:56:f5:4b:03:3c:2d:87:01:84:b1:
         ae:f0:a2:9d:32:c2:d8:db:aa:2e:c3:e3:ec:d4:ae:fb:8d:65:
         df:b8:46:54:6e:16:4e:33:d7:3e:a7:ad:df:77:b4:9a:ac:f5:
         79:85:67:dd:2b:06:bd:99:7d:f2:c8:06:e8:00:c3:d5:1a:94:
         6f:48:29:12:87:26:a0:df:b2:c7:95:b4:84:80:30:65:03:c1:
         b7:89:df:01:67:46:1f:d0:1c:25:32:ff:1a:3a:fb:e6:6e:29:
         dd:c4:18:9b:60:27:44:ea:7e:06:29:b8:00:42:ef:d3:65:88:
         97:be:ef:61:68:af:97:3a:24:d4:97:d9:df:c1:8b:f7:8f:82:
         30:b3:92:28:db:fd:38:b8:dc:33:fb:a1:e5:0e:8f:07:ee:31:
         bf:c9:00:8e:63:bf:16:af:53:e9:fd:0a:71:03:4d:3d:8e:b7:
         a2:66:42:8e:b1:62:30:43:2f:a0:e0:f8:18:88:3e:59:5d:92:
         28:bb:10:d2
-----BEGIN CERTIFICATE-----
MIIDvTCCAqWgAwIBAgIBBjANBgkqhkiG9w0BAQUFADCBizELMAkGA1UEBhMCVVMx
CzAJBgNVBAgMAkNBMRIwEAYDVQQHDAlTb21ld2hlcmUxEzARBgNVBAoMCkNpZW5h
IEluYy4xHjAcBgkqhkiG9w0BCQEWD2FkbWluQGNpZW5hLmNvbTEmMCQGA1UEAwwd
RXhhbXBsZSBDZXJ0aWZpY2F0ZSBBdXRob3JpdHkwHhcNMTcwMzExMDA0NzQ0WhcN
MjIxMDMxMDA0NzQ0WjBnMQswCQYDVQQGEwJVUzELMAkGA1UECAwCQ0ExEzARBgNV
BAoMCkNpZW5hIEluYy4xFzAVBgNVBAMMDnVzZXJAY2llbmEuY29tMR0wGwYJKoZI
hvcNAQkBFg51c2VyQGNpZW5hLmNvbTCCASIwDQYJKoZIhvcNAQEBBQADggEPADCC
AQoCggEBAOTxi5+TUuaosUh7f/4U9unLV3qHCC7Sf3e0o8F+FP4BVQiIslUTEupw
gd3VkiVAhxX74Oc3w7XF98msKx7dTetpQaZPZgEgGiDmzGzlAGkwqD4FO5JotJMg
I0rpcYw+M/z+WDVgJx3I+VGyC6lFKhIJWTlTySheyMYpcgSvOuN4z8keCNg2uaRZ
IOvIf6aUCTF7fp2HC/468/3T6R/VuYKFNdpsyU1ogbQqCUL4WHM2uWz6G7rzXI0/
skkKemoGouFw+0I3ydPpGpiWK4NpPKHax4dRGaO1NmTDCtrJOAKPQx8CYYH0HMNp
BbYvidTnHBxYUBrWNpzOJ/xgopawA8kCAwEAAaNPME0wEwYDVR0lBAwwCgYIKwYB
BQUHAwIwNgYDVR0fBC8wLTAroCmgJ4YlaHR0cDovL3d3dy5leGFtcGxlLmNvbS9l
eGFtcGxlX2NhLmNybDANBgkqhkiG9w0BAQUFAAOCAQEAosa5wV/RA2XO/SVGWx5K
JkQNBn6zKuLRODdkm1UwpkdSZpYoXw2ds6YPPbxV9gFeitCcPZQUho38Fg1LYrNW
9UsDPC2HAYSxrvCinTLC2NuqLsPj7NSu+41l37hGVG4WTjPXPqet33e0mqz1eYVn
3SsGvZl98sgG6ADD1RqUb0gpEocmoN+yx5W0hIAwZQPBt4nfAWdGH9AcJTL/Gjr7
5m4p3cQYm2AnROp+Bim4AELv02WIl77vYWivlzok1JfZ38GL94+CMLOSKNv9OLjc
M/uh5Q6PB+4xv8kAjmO/Fq9T6f0KcQNNPY63omZCjrFiMEMvoOD4GIg+WV2SKLsQ
0g==
-----END CERTIFICATE-----
