Certificate:
    Data:
        Version: 3 (0x2)
        Serial Number: 2 (0x2)
    Signature Algorithm: sha1WithRSAEncryption
        Issuer: C=US, ST=CA, L=Somewhere, O=Ciena Inc./emailAddress=admin@ciena.com, CN=Example Certificate Authority
        Validity
            Not Before: Mar 11 18:53:36 2016 GMT
            Not After : Mar  6 18:53:36 2017 GMT
        Subject: C=US, ST=CA, O=Ciena Inc., CN=user@ciena.com/emailAddress=user@ciena.com
        Subject Public Key Info:
            Public Key Algorithm: rsaEncryption
                Public-Key: (2048 bit)
                Modulus:
                    00:ec:5e:99:c0:6c:3e:7f:6d:66:c0:9a:e6:8d:89:
                    03:ab:10:0c:2e:c0:e8:98:02:35:75:e5:d9:51:73:
                    28:b3:4d:bc:1f:4f:4b:a0:fb:64:1b:10:e4:09:f4:
                    cc:40:cc:37:38:b9:d6:ae:e5:9e:b6:20:d5:7c:a2:
                    13:84:bc:17:33:06:00:5a:fd:e1:19:46:31:02:54:
                    6d:10:fd:57:fa:2a:b3:33:17:e2:4f:be:88:03:8a:
                    b4:80:35:82:bd:f1:ed:98:be:d2:d9:23:55:25:73:
                    5d:39:a0:36:78:42:84:06:a6:74:cb:23:61:41:b9:
                    f8:26:3d:58:08:9c:5f:2c:be:54:45:77:cd:3a:61:
                    65:90:d1:3a:37:23:12:9e:26:fd:34:97:54:f6:0f:
                    81:80:d7:23:8d:18:64:a5:f9:05:db:ea:ca:45:ad:
                    4f:fb:48:81:96:f8:f1:14:b5:34:fc:8d:fd:79:02:
                    63:39:77:6e:fd:b5:ab:1e:cc:73:47:dc:11:bb:09:
                    04:82:11:61:35:24:7f:19:ec:8a:57:27:98:bc:52:
                    60:ef:a9:f8:36:7d:b8:12:c1:cd:c4:2d:fb:84:5d:
                    e6:92:d2:7e:2d:b5:58:cd:fd:d9:9d:a8:3a:2d:ef:
                    b3:f3:98:00:f0:2a:82:68:b6:25:63:af:de:67:8f:
                    6b:ff
                Exponent: 65537 (0x10001)
        X509v3 extensions:
            X509v3 Extended Key Usage: 
                TLS Web Client Authentication
            X509v3 CRL Distribution Points: 

                Full Name:
                  URI:http://www.example.com/example_ca.crl

    Signature Algorithm: sha1WithRSAEncryption
         2c:1c:cc:3c:34:c8:07:ab:0b:c8:f9:74:4f:a2:55:32:33:a4:
         ca:57:40:56:15:d6:89:0b:13:8d:a1:90:18:95:14:7b:57:26:
         50:9c:99:6d:46:44:73:5d:cc:ca:05:cc:3c:e3:38:c7:bc:fa:
         56:95:c6:ba:ad:5c:fd:5c:67:57:34:36:7c:d9:db:25:c2:00:
         1e:2f:fb:1b:c5:b9:fd:24:1f:3d:eb:08:54:3b:07:4c:47:38:
         66:ca:4f:8b:98:e5:4b:f3:15:5f:71:ce:0b:e0:43:6c:e8:dd:
         6f:0a:8f:45:7d:09:12:bf:ae:3b:28:63:3b:e9:51:c4:6f:22:
         94:c4:40:0a:80:54:6f:0d:5e:0e:e5:43:a0:40:60:12:b4:94:
         0b:8e:29:ab:98:a8:0f:0d:b1:7a:57:3e:63:a8:50:76:6b:58:
         c1:f6:34:0d:bb:f0:c4:7b:40:e3:de:5f:ac:bc:8f:71:ab:2d:
         0e:24:ff:ce:b7:bb:34:be:75:33:25:03:3e:38:d8:8e:08:4d:
         40:4c:2f:bb:ae:88:29:b4:37:4f:5b:49:06:b8:08:ef:f5:88:
         f9:da:a1:28:11:68:94:a1:8a:4c:35:88:1e:c6:57:42:f6:75:
         b2:71:ae:fc:54:58:ce:0d:65:f9:1f:e3:4f:c7:11:07:d0:43:
         c2:15:2d:ca
-----BEGIN CERTIFICATE-----
MIIDvTCCAqWgAwIBAgIBAjANBgkqhkiG9w0BAQUFADCBizELMAkGA1UEBhMCVVMx
CzAJBgNVBAgTAkNBMRIwEAYDVQQHEwlTb21ld2hlcmUxEzARBgNVBAoTCkNpZW5h
IEluYy4xHjAcBgkqhkiG9w0BCQEWD2FkbWluQGNpZW5hLmNvbTEmMCQGA1UEAxMd
RXhhbXBsZSBDZXJ0aWZpY2F0ZSBBdXRob3JpdHkwHhcNMTYwMzExMTg1MzM2WhcN
MTcwMzA2MTg1MzM2WjBnMQswCQYDVQQGEwJVUzELMAkGA1UECBMCQ0ExEzARBgNV
BAoTCkNpZW5hIEluYy4xFzAVBgNVBAMUDnVzZXJAY2llbmEuY29tMR0wGwYJKoZI
hvcNAQkBFg51c2VyQGNpZW5hLmNvbTCCASIwDQYJKoZIhvcNAQEBBQADggEPADCC
AQoCggEBAOxemcBsPn9tZsCa5o2JA6sQDC7A6JgCNXXl2VFzKLNNvB9PS6D7ZBsQ
5An0zEDMNzi51q7lnrYg1XyiE4S8FzMGAFr94RlGMQJUbRD9V/oqszMX4k++iAOK
tIA1gr3x7Zi+0tkjVSVzXTmgNnhChAamdMsjYUG5+CY9WAicXyy+VEV3zTphZZDR
OjcjEp4m/TSXVPYPgYDXI40YZKX5BdvqykWtT/tIgZb48RS1NPyN/XkCYzl3bv21
qx7Mc0fcEbsJBIIRYTUkfxnsilcnmLxSYO+p+DZ9uBLBzcQt+4Rd5pLSfi21WM39
2Z2oOi3vs/OYAPAqgmi2JWOv3mePa/8CAwEAAaNPME0wEwYDVR0lBAwwCgYIKwYB
BQUHAwIwNgYDVR0fBC8wLTAroCmgJ4YlaHR0cDovL3d3dy5leGFtcGxlLmNvbS9l
eGFtcGxlX2NhLmNybDANBgkqhkiG9w0BAQUFAAOCAQEALBzMPDTIB6sLyPl0T6JV
MjOkyldAVhXWiQsTjaGQGJUUe1cmUJyZbUZEc13MygXMPOM4x7z6VpXGuq1c/Vxn
VzQ2fNnbJcIAHi/7G8W5/SQfPesIVDsHTEc4ZspPi5jlS/MVX3HOC+BDbOjdbwqP
RX0JEr+uOyhjO+lRxG8ilMRACoBUbw1eDuVDoEBgErSUC44pq5ioDw2xelc+Y6hQ
dmtYwfY0DbvwxHtA495frLyPcastDiT/zre7NL51MyUDPjjYjghNQEwvu66IKbQ3
T1tJBrgI7/WI+dqhKBFolKGKTDWIHsZXQvZ1snGu/FRYzg1l+R/jT8cRB9BDwhUt
yg==
-----END CERTIFICATE-----
