Certificate:
    Data:
        Version: 3 (0x2)
        Serial Number: 1 (0x1)
    Signature Algorithm: sha1WithRSAEncryption
        Issuer: C=US, ST=CA, L=Somewhere, O=Ciena Inc./emailAddress=admin@ciena.com, CN=Example Certificate Authority
        Validity
            Not Before: Mar 11 18:53:35 2016 GMT
            Not After : Mar  6 18:53:35 2017 GMT
        Subject: C=US, ST=CA, O=Ciena Inc., CN=Example Server Certificate/emailAddress=admin@ciena.com
        Subject Public Key Info:
            Public Key Algorithm: rsaEncryption
                Public-Key: (2048 bit)
                Modulus:
                    00:a7:9b:3d:b2:8f:6d:dd:55:c7:34:5a:8b:c7:78:
                    a8:ff:14:fa:21:0e:60:1b:0c:87:36:f1:07:3a:cc:
                    f1:8a:9d:23:4c:31:8d:81:92:0b:1f:b2:f9:6f:55:
                    79:c3:fd:18:8f:99:a7:8b:8c:41:18:a6:02:08:cb:
                    b5:5b:8b:b7:23:a3:6d:20:a9:ec:ee:bf:fa:f1:99:
                    d7:07:35:a1:3b:e9:5e:b7:84:8a:db:5d:46:15:3e:
                    1f:92:2d:12:db:4c:c3:aa:13:c7:dd:2d:a0:0a:d2:
                    3c:59:19:fa:7c:d9:a5:b4:16:bd:82:ba:35:47:c4:
                    dc:fb:af:61:f1:70:d8:b3:2c:ef:91:20:c5:d5:af:
                    b7:ac:5d:15:4e:ea:64:ab:0b:b3:ee:25:7e:aa:a8:
                    a0:a5:36:2e:59:ed:b8:c7:02:4f:ab:9b:e7:50:4c:
                    30:14:4d:48:1a:a2:88:05:6e:7e:82:ef:f8:c5:70:
                    b5:d8:3e:ae:f6:e0:2e:68:ba:52:d3:e5:3a:2d:0f:
                    dd:43:86:39:b5:af:5b:c3:86:7b:98:78:7f:d5:9b:
                    ee:9f:e4:50:5e:03:9e:29:67:f5:78:35:b1:d3:e2:
                    66:2d:68:36:c2:30:c9:06:c2:1c:73:9b:c3:09:28:
                    ba:08:b8:f5:49:e0:5b:d1:43:d9:38:06:47:32:a2:
                    de:a9
                Exponent: 65537 (0x10001)
        X509v3 extensions:
            X509v3 Extended Key Usage: 
                TLS Web Server Authentication
            X509v3 CRL Distribution Points: 

                Full Name:
                  URI:http://www.example.com/example_ca.crl

    Signature Algorithm: sha1WithRSAEncryption
         58:cd:50:ef:5f:b1:3e:34:a2:5d:f4:59:f6:11:25:be:de:b2:
         f8:58:81:2a:89:f0:e7:df:36:88:49:8e:d2:c4:44:22:6c:40:
         a4:13:6c:8c:15:9d:f2:9e:32:29:ff:31:f0:82:92:3e:93:58:
         ce:eb:da:9b:19:76:7d:de:54:c5:b1:b2:2e:66:4c:7b:7c:9c:
         98:12:f9:20:aa:d3:c7:d3:0b:70:5a:c3:24:d7:b9:92:8e:38:
         fe:54:21:c6:c9:e4:c8:b8:b6:ae:8a:0e:2d:18:95:53:da:b6:
         9b:94:12:0d:68:e8:ef:0a:78:8b:29:cc:0f:59:a4:d8:dc:6c:
         34:b2:7a:6f:de:63:1e:e1:03:d2:f3:ca:b6:26:05:f4:22:51:
         2a:ff:78:d1:07:b3:e7:7e:ab:68:33:2a:0a:d0:cc:be:26:ea:
         6a:6e:10:d7:2b:7a:7b:cb:e6:0d:50:66:7f:9a:33:31:ad:8d:
         1b:3b:3f:8e:74:29:3d:07:37:9d:4d:29:ad:b6:cc:84:d8:1c:
         09:48:61:ce:67:30:ee:74:25:fe:23:5a:8d:00:f6:1a:5d:de:
         04:70:a7:ea:e9:6f:b0:25:10:f4:3a:70:ab:5a:57:5f:53:12:
         d8:0e:52:f4:f2:f5:dc:25:71:e5:46:24:09:65:95:22:1b:35:
         8b:78:9b:6f
-----BEGIN CERTIFICATE-----
MIIDyjCCArKgAwIBAgIBATANBgkqhkiG9w0BAQUFADCBizELMAkGA1UEBhMCVVMx
CzAJBgNVBAgTAkNBMRIwEAYDVQQHEwlTb21ld2hlcmUxEzARBgNVBAoTCkNpZW5h
IEluYy4xHjAcBgkqhkiG9w0BCQEWD2FkbWluQGNpZW5hLmNvbTEmMCQGA1UEAxMd
RXhhbXBsZSBDZXJ0aWZpY2F0ZSBBdXRob3JpdHkwHhcNMTYwMzExMTg1MzM1WhcN
MTcwMzA2MTg1MzM1WjB0MQswCQYDVQQGEwJVUzELMAkGA1UECBMCQ0ExEzARBgNV
BAoTCkNpZW5hIEluYy4xIzAhBgNVBAMTGkV4YW1wbGUgU2VydmVyIENlcnRpZmlj
YXRlMR4wHAYJKoZIhvcNAQkBFg9hZG1pbkBjaWVuYS5jb20wggEiMA0GCSqGSIb3
DQEBAQUAA4IBDwAwggEKAoIBAQCnmz2yj23dVcc0WovHeKj/FPohDmAbDIc28Qc6
zPGKnSNMMY2BkgsfsvlvVXnD/RiPmaeLjEEYpgIIy7Vbi7cjo20gqezuv/rxmdcH
NaE76V63hIrbXUYVPh+SLRLbTMOqE8fdLaAK0jxZGfp82aW0Fr2CujVHxNz7r2Hx
cNizLO+RIMXVr7esXRVO6mSrC7PuJX6qqKClNi5Z7bjHAk+rm+dQTDAUTUgaoogF
bn6C7/jFcLXYPq724C5oulLT5TotD91Dhjm1r1vDhnuYeH/Vm+6f5FBeA54pZ/V4
NbHT4mYtaDbCMMkGwhxzm8MJKLoIuPVJ4FvRQ9k4Bkcyot6pAgMBAAGjTzBNMBMG
A1UdJQQMMAoGCCsGAQUFBwMBMDYGA1UdHwQvMC0wK6ApoCeGJWh0dHA6Ly93d3cu
ZXhhbXBsZS5jb20vZXhhbXBsZV9jYS5jcmwwDQYJKoZIhvcNAQEFBQADggEBAFjN
UO9fsT40ol30WfYRJb7esvhYgSqJ8OffNohJjtLERCJsQKQTbIwVnfKeMin/MfCC
kj6TWM7r2psZdn3eVMWxsi5mTHt8nJgS+SCq08fTC3BawyTXuZKOOP5UIcbJ5Mi4
tq6KDi0YlVPatpuUEg1o6O8KeIspzA9ZpNjcbDSyem/eYx7hA9LzyrYmBfQiUSr/
eNEHs+d+q2gzKgrQzL4m6mpuENcrenvL5g1QZn+aMzGtjRs7P450KT0HN51NKa22
zITYHAlIYc5nMO50Jf4jWo0A9hpd3gRwp+rpb7AlEPQ6cKtaV19TEtgOUvTy9dwl
ceVGJAlllSIbNYt4m28=
-----END CERTIFICATE-----
