Certificate:
    Data:
        Version: 3 (0x2)
        Serial Number: 1 (0x1)
    Signature Algorithm: sha1WithRSAEncryption
        Issuer: C=US, ST=CA, L=Somewhere, O=Ciena Inc./emailAddress=admin@ciena.com, CN=Example Certificate Authority
        Validity
            Not Before: Jun  6 21:12:27 2016 GMT
            Not After : Jun  1 21:12:27 2017 GMT
        Subject: C=US, ST=CA, O=Ciena Inc., CN=Example Server Certificate/emailAddress=admin@ciena.com
        Subject Public Key Info:
            Public Key Algorithm: rsaEncryption
                Public-Key: (2048 bit)
                Modulus:
                    00:9e:ca:94:59:9c:35:4c:84:93:99:02:ec:7c:a4:
                    60:4c:b4:60:97:89:01:9a:0e:45:4d:c5:69:71:de:
                    b9:e8:b8:78:ee:be:49:bc:30:4f:7e:2c:00:48:8c:
                    ed:36:b7:48:0e:7e:67:6e:ac:7f:ba:21:78:91:fe:
                    64:a7:30:6e:9c:41:d3:1f:89:f6:1f:33:7c:1f:c4:
                    34:c0:89:ba:cf:71:f9:8b:4b:d2:ef:e9:7b:df:0b:
                    5b:04:8e:40:fb:cf:a4:08:b5:e4:ab:40:16:a5:47:
                    bc:90:c8:04:fc:d8:f2:05:0a:27:a7:c4:6c:c2:9a:
                    a2:3c:f8:c6:fe:ff:d7:67:3c:aa:99:15:c2:52:b3:
                    8f:ff:77:58:3c:06:66:03:24:fd:ab:e1:a3:cb:a9:
                    6d:f9:e5:37:21:02:23:49:5f:61:c5:2b:fd:75:ac:
                    d5:2c:27:9d:7c:24:46:2b:4c:6d:01:bd:a8:51:2a:
                    9d:d7:03:53:30:c6:52:07:4e:62:5c:aa:d0:57:28:
                    30:17:e6:c0:2a:8b:86:49:97:85:ba:fc:cb:d0:b0:
                    67:9b:a0:ee:3a:14:32:7a:fd:6a:9b:bb:f9:75:9c:
                    a5:c3:ab:a2:64:f0:2b:5c:24:cc:df:d1:6a:42:8c:
                    ca:7c:5e:06:96:59:79:d8:18:26:5e:b2:e3:b3:6b:
                    8f:df
                Exponent: 65537 (0x10001)
        X509v3 extensions:
            X509v3 Extended Key Usage: 
                TLS Web Server Authentication
            X509v3 CRL Distribution Points: 

                Full Name:
                  URI:http://www.example.com/example_ca.crl

    Signature Algorithm: sha1WithRSAEncryption
         1d:65:7f:32:5b:2d:60:5d:17:ee:c5:e1:92:f2:cf:38:7b:f7:
         cb:92:a2:5c:06:b2:bd:34:96:68:15:91:8c:85:92:f4:cc:af:
         7a:b7:9c:10:2b:26:da:b6:5e:e4:66:01:8c:ad:9c:8f:bc:02:
         9a:88:12:e2:2f:47:70:68:a5:b3:f1:df:6b:7f:82:d2:76:52:
         fe:c0:2c:2c:cd:2d:26:2c:8a:52:f7:92:35:ce:50:5f:5b:26:
         f0:bd:ef:ac:bc:fd:87:f7:87:37:d7:2b:56:9a:5a:14:b4:97:
         b4:df:b4:95:c8:7b:76:49:a1:4b:5b:f7:10:4d:f1:b5:16:99:
         f1:19
-----BEGIN CERTIFICATE-----
MIIDSTCCArKgAwIBAgIBATANBgkqhkiG9w0BAQUFADCBizELMAkGA1UEBhMCVVMx
CzAJBgNVBAgTAkNBMRIwEAYDVQQHEwlTb21ld2hlcmUxEzARBgNVBAoTCkNpZW5h
IEluYy4xHjAcBgkqhkiG9w0BCQEWD2FkbWluQGNpZW5hLmNvbTEmMCQGA1UEAxMd
RXhhbXBsZSBDZXJ0aWZpY2F0ZSBBdXRob3JpdHkwHhcNMTYwNjA2MjExMjI3WhcN
MTcwNjAxMjExMjI3WjB0MQswCQYDVQQGEwJVUzELMAkGA1UECBMCQ0ExEzARBgNV
BAoTCkNpZW5hIEluYy4xIzAhBgNVBAMTGkV4YW1wbGUgU2VydmVyIENlcnRpZmlj
YXRlMR4wHAYJKoZIhvcNAQkBFg9hZG1pbkBjaWVuYS5jb20wggEiMA0GCSqGSIb3
DQEBAQUAA4IBDwAwggEKAoIBAQCeypRZnDVMhJOZAux8pGBMtGCXiQGaDkVNxWlx
3rnouHjuvkm8ME9+LABIjO02t0gOfmdurH+6IXiR/mSnMG6cQdMfifYfM3wfxDTA
ibrPcfmLS9Lv6XvfC1sEjkD7z6QIteSrQBalR7yQyAT82PIFCienxGzCmqI8+Mb+
/9dnPKqZFcJSs4//d1g8BmYDJP2r4aPLqW355TchAiNJX2HFK/11rNUsJ518JEYr
TG0BvahRKp3XA1MwxlIHTmJcqtBXKDAX5sAqi4ZJl4W6/MvQsGeboO46FDJ6/Wqb
u/l1nKXDq6Jk8CtcJMzf0WpCjMp8XgaWWXnYGCZesuOza4/fAgMBAAGjTzBNMBMG
A1UdJQQMMAoGCCsGAQUFBwMBMDYGA1UdHwQvMC0wK6ApoCeGJWh0dHA6Ly93d3cu
ZXhhbXBsZS5jb20vZXhhbXBsZV9jYS5jcmwwDQYJKoZIhvcNAQEFBQADgYEAHWV/
MlstYF0X7sXhkvLPOHv3y5KiXAayvTSWaBWRjIWS9MyverecECsm2rZe5GYBjK2c
j7wCmogS4i9HcGils/Hfa3+C0nZS/sAsLM0tJiyKUveSNc5QX1sm8L3vrLz9h/eH
N9crVppaFLSXtN+0lch7dkmhS1v3EE3xtRaZ8Rk=
-----END CERTIFICATE-----
