Certificate:
    Data:
        Version: 3 (0x2)
        Serial Number: 2 (0x2)
    Signature Algorithm: sha1WithRSAEncryption
        Issuer: C=US, ST=CA, L=Somewhere, O=Ciena Inc./emailAddress=admin@ciena.com, CN=Example Certificate Authority
        Validity
            Not Before: Jun  6 21:12:27 2016 GMT
            Not After : Jun  1 21:12:27 2017 GMT
        Subject: C=US, ST=CA, O=Ciena Inc., CN=user@ciena.com/emailAddress=user@ciena.com
        Subject Public Key Info:
            Public Key Algorithm: rsaEncryption
                Public-Key: (1024 bit)
                Modulus:
                    00:c2:f5:e2:4b:36:fd:2d:9e:9c:ee:e3:73:89:47:
                    ca:be:81:ce:ef:0b:bf:ba:21:42:e5:85:29:5d:b9:
                    95:1a:e1:99:8b:36:d5:ae:7c:b4:c6:74:7c:e4:37:
                    de:fb:d4:78:76:26:a7:b1:f0:e1:22:1c:ce:52:5d:
                    57:8c:dd:d8:0d:e4:92:f4:e7:85:e5:85:8d:34:4f:
                    17:0e:19:73:d9:dd:eb:57:36:8d:ea:12:21:76:8b:
                    41:91:48:e0:ad:47:b0:8d:38:39:38:54:77:d5:01:
                    32:1b:7b:fc:c5:1d:c2:2e:08:84:f7:14:04:2e:36:
                    5b:48:0d:3b:a4:3e:fd:ce:e5
                Exponent: 65537 (0x10001)
        X509v3 extensions:
            X509v3 Extended Key Usage: 
                TLS Web Client Authentication
            X509v3 CRL Distribution Points: 

                Full Name:
                  URI:http://www.example.com/example_ca.crl

    Signature Algorithm: sha1WithRSAEncryption
         c0:8e:4a:d8:ea:d0:c2:86:62:9b:be:bf:30:e8:3b:bf:b7:cb:
         c7:8d:30:a8:08:8a:1c:1d:33:74:ab:35:8e:79:bd:58:b0:01:
         97:f3:df:93:ad:62:2e:3b:57:45:c9:87:7e:67:42:82:3c:32:
         81:e6:3f:f2:82:69:7d:35:af:80:92:54:98:01:52:48:8e:f9:
         73:5c:a6:6b:39:a3:e6:85:9a:83:b9:f8:be:ad:75:ad:8b:fb:
         ad:56:a6:38:54:c5:b6:f8:72:82:9d:7a:77:ee:a5:9e:b8:52:
         c6:c9:1d:79:d7:d6:35:77:a1:7f:e5:7c:ea:9a:f6:f0:51:1b:
         84:ba
-----BEGIN CERTIFICATE-----
MIICuDCCAiGgAwIBAgIBAjANBgkqhkiG9w0BAQUFADCBizELMAkGA1UEBhMCVVMx
CzAJBgNVBAgTAkNBMRIwEAYDVQQHEwlTb21ld2hlcmUxEzARBgNVBAoTCkNpZW5h
IEluYy4xHjAcBgkqhkiG9w0BCQEWD2FkbWluQGNpZW5hLmNvbTEmMCQGA1UEAxMd
RXhhbXBsZSBDZXJ0aWZpY2F0ZSBBdXRob3JpdHkwHhcNMTYwNjA2MjExMjI3WhcN
MTcwNjAxMjExMjI3WjBnMQswCQYDVQQGEwJVUzELMAkGA1UECBMCQ0ExEzARBgNV
BAoTCkNpZW5hIEluYy4xFzAVBgNVBAMUDnVzZXJAY2llbmEuY29tMR0wGwYJKoZI
hvcNAQkBFg51c2VyQGNpZW5hLmNvbTCBnzANBgkqhkiG9w0BAQEFAAOBjQAwgYkC
gYEAwvXiSzb9LZ6c7uNziUfKvoHO7wu/uiFC5YUpXbmVGuGZizbVrny0xnR85Dfe
+9R4diansfDhIhzOUl1XjN3YDeSS9OeF5YWNNE8XDhlz2d3rVzaN6hIhdotBkUjg
rUewjTg5OFR31QEyG3v8xR3CLgiE9xQELjZbSA07pD79zuUCAwEAAaNPME0wEwYD
VR0lBAwwCgYIKwYBBQUHAwIwNgYDVR0fBC8wLTAroCmgJ4YlaHR0cDovL3d3dy5l
eGFtcGxlLmNvbS9leGFtcGxlX2NhLmNybDANBgkqhkiG9w0BAQUFAAOBgQDAjkrY
6tDChmKbvr8w6Du/t8vHjTCoCIocHTN0qzWOeb1YsAGX89+TrWIuO1dFyYd+Z0KC
PDKB5j/ygml9Na+AklSYAVJIjvlzXKZrOaPmhZqDufi+rXWti/utVqY4VMW2+HKC
nXp37qWeuFLGyR1519Y1d6F/5XzqmvbwURuEug==
-----END CERTIFICATE-----
